; ModuleID = '24/472.c'
source_filename = "24/472.c"
target datalayout = "e-m:e-p270:32:32-p271:32:32-p272:64:64-i64:64-f80:128-n8:16:32:64-S128"
target triple = "x86_64-pc-linux-gnu"

@.str = private unnamed_addr constant [3 x i8] c"%s\00", align 1
@.str.1 = private unnamed_addr constant [4 x i8] c"%s\0A\00", align 1

; Function Attrs: noinline nounwind uwtable
define dso_local void @main() #0 {
  %1 = alloca i32, align 4
  %2 = alloca [100 x i32], align 16
  %3 = alloca i32, align 4
  %4 = alloca i32, align 4
  %5 = alloca i32, align 4
  %6 = alloca [100 x [30 x i8]], align 16
  %7 = alloca [30 x i8], align 16
  %8 = alloca [30 x i8], align 16
  store i32 0, i32* %1, align 4
  br label %9

9:                                                ; preds = %27, %0
  %10 = load i32, i32* %1, align 4
  %11 = sext i32 %10 to i64
  %12 = getelementptr inbounds [100 x [30 x i8]], [100 x [30 x i8]]* %6, i64 0, i64 %11
  %13 = getelementptr inbounds [30 x i8], [30 x i8]* %12, i64 0, i64 0
  %14 = call i32 (i8*, ...) @__isoc99_scanf(i8* getelementptr inbounds ([3 x i8], [3 x i8]* @.str, i64 0, i64 0), i8* %13)
  %15 = icmp eq i32 %14, -1
  br i1 %15, label %16, label %17

16:                                               ; preds = %9
  br label %30

17:                                               ; preds = %9
  %18 = load i32, i32* %1, align 4
  %19 = sext i32 %18 to i64
  %20 = getelementptr inbounds [100 x [30 x i8]], [100 x [30 x i8]]* %6, i64 0, i64 %19
  %21 = getelementptr inbounds [30 x i8], [30 x i8]* %20, i64 0, i64 0
  %22 = call i64 @strlen(i8* %21) #4
  %23 = trunc i64 %22 to i32
  %24 = load i32, i32* %1, align 4
  %25 = sext i32 %24 to i64
  %26 = getelementptr inbounds [100 x i32], [100 x i32]* %2, i64 0, i64 %25
  store i32 %23, i32* %26, align 4
  br label %27

27:                                               ; preds = %17
  %28 = load i32, i32* %1, align 4
  %29 = add nsw i32 %28, 1
  store i32 %29, i32* %1, align 4
  br label %9

30:                                               ; preds = %16
  %31 = load i32, i32* %1, align 4
  store i32 %31, i32* %4, align 4
  %32 = getelementptr inbounds [100 x i32], [100 x i32]* %2, i64 0, i64 0
  %33 = load i32, i32* %32, align 16
  store i32 %33, i32* %3, align 4
  %34 = getelementptr inbounds [30 x i8], [30 x i8]* %7, i64 0, i64 0
  %35 = getelementptr inbounds [100 x [30 x i8]], [100 x [30 x i8]]* %6, i64 0, i64 0
  %36 = getelementptr inbounds [30 x i8], [30 x i8]* %35, i64 0, i64 0
  %37 = call i8* @strcpy(i8* %34, i8* %36) #5
  store i32 0, i32* %1, align 4
  br label %38

38:                                               ; preds = %61, %30
  %39 = load i32, i32* %1, align 4
  %40 = load i32, i32* %4, align 4
  %41 = icmp slt i32 %39, %40
  br i1 %41, label %42, label %64

42:                                               ; preds = %38
  %43 = load i32, i32* %1, align 4
  %44 = sext i32 %43 to i64
  %45 = getelementptr inbounds [100 x i32], [100 x i32]* %2, i64 0, i64 %44
  %46 = load i32, i32* %45, align 4
  %47 = load i32, i32* %3, align 4
  %48 = icmp sgt i32 %46, %47
  br i1 %48, label %49, label %60

49:                                               ; preds = %42
  %50 = load i32, i32* %1, align 4
  %51 = sext i32 %50 to i64
  %52 = getelementptr inbounds [100 x i32], [100 x i32]* %2, i64 0, i64 %51
  %53 = load i32, i32* %52, align 4
  store i32 %53, i32* %3, align 4
  %54 = getelementptr inbounds [30 x i8], [30 x i8]* %7, i64 0, i64 0
  %55 = load i32, i32* %1, align 4
  %56 = sext i32 %55 to i64
  %57 = getelementptr inbounds [100 x [30 x i8]], [100 x [30 x i8]]* %6, i64 0, i64 %56
  %58 = getelementptr inbounds [30 x i8], [30 x i8]* %57, i64 0, i64 0
  %59 = call i8* @strcpy(i8* %54, i8* %58) #5
  br label %60

60:                                               ; preds = %49, %42
  br label %61

61:                                               ; preds = %60
  %62 = load i32, i32* %1, align 4
  %63 = add nsw i32 %62, 1
  store i32 %63, i32* %1, align 4
  br label %38

64:                                               ; preds = %38
  %65 = getelementptr inbounds [100 x i32], [100 x i32]* %2, i64 0, i64 0
  %66 = load i32, i32* %65, align 16
  store i32 %66, i32* %5, align 4
  %67 = getelementptr inbounds [30 x i8], [30 x i8]* %8, i64 0, i64 0
  %68 = getelementptr inbounds [100 x [30 x i8]], [100 x [30 x i8]]* %6, i64 0, i64 0
  %69 = getelementptr inbounds [30 x i8], [30 x i8]* %68, i64 0, i64 0
  %70 = call i8* @strcpy(i8* %67, i8* %69) #5
  store i32 0, i32* %1, align 4
  br label %71

71:                                               ; preds = %94, %64
  %72 = load i32, i32* %1, align 4
  %73 = load i32, i32* %4, align 4
  %74 = icmp slt i32 %72, %73
  br i1 %74, label %75, label %97

75:                                               ; preds = %71
  %76 = load i32, i32* %1, align 4
  %77 = sext i32 %76 to i64
  %78 = getelementptr inbounds [100 x i32], [100 x i32]* %2, i64 0, i64 %77
  %79 = load i32, i32* %78, align 4
  %80 = load i32, i32* %5, align 4
  %81 = icmp slt i32 %79, %80
  br i1 %81, label %82, label %93

82:                                               ; preds = %75
  %83 = load i32, i32* %1, align 4
  %84 = sext i32 %83 to i64
  %85 = getelementptr inbounds [100 x i32], [100 x i32]* %2, i64 0, i64 %84
  %86 = load i32, i32* %85, align 4
  store i32 %86, i32* %5, align 4
  %87 = getelementptr inbounds [30 x i8], [30 x i8]* %8, i64 0, i64 0
  %88 = load i32, i32* %1, align 4
  %89 = sext i32 %88 to i64
  %90 = getelementptr inbounds [100 x [30 x i8]], [100 x [30 x i8]]* %6, i64 0, i64 %89
  %91 = getelementptr inbounds [30 x i8], [30 x i8]* %90, i64 0, i64 0
  %92 = call i8* @strcpy(i8* %87, i8* %91) #5
  br label %93

93:                                               ; preds = %82, %75
  br label %94

94:                                               ; preds = %93
  %95 = load i32, i32* %1, align 4
  %96 = add nsw i32 %95, 1
  store i32 %96, i32* %1, align 4
  br label %71

97:                                               ; preds = %71
  %98 = getelementptr inbounds [30 x i8], [30 x i8]* %7, i64 0, i64 0
  %99 = call i32 (i8*, ...) @printf(i8* getelementptr inbounds ([4 x i8], [4 x i8]* @.str.1, i64 0, i64 0), i8* %98)
  %100 = getelementptr inbounds [30 x i8], [30 x i8]* %8, i64 0, i64 0
  %101 = call i32 (i8*, ...) @printf(i8* getelementptr inbounds ([4 x i8], [4 x i8]* @.str.1, i64 0, i64 0), i8* %100)
  ret void
}

declare dso_local i32 @__isoc99_scanf(i8*, ...) #1

; Function Attrs: nounwind readonly
declare dso_local i64 @strlen(i8*) #2

; Function Attrs: nounwind
declare dso_local i8* @strcpy(i8*, i8*) #3

declare dso_local i32 @printf(i8*, ...) #1


!llvm.module.flags = !{!0}
!llvm.ident = !{!1}

!0 = !{i32 1, !"wchar_size", i32 4}
!1 = !{!"clang version 10.0.0-4ubuntu1 "}
